target datalayout = "e-m:e-p270:32:32-p271:32:32-p272:64:64-i64:64-i128:128-f80:128-n8:16:32:64-S128"
target triple = "x86_64-pc-linux-gnu"

%class.dtTileCache = type { i32, i32, ptr, ptr, ptr, i32, i32, %struct.dtTileCacheParams, ptr, ptr, ptr, ptr, ptr, [64 x %"struct.dtTileCache::ObstacleRequest"], i32, [64 x i32], i32 }
%struct.dtTileCacheParams = type { [3 x float], float, float, i32, i32, float, float, float, float, i32, i32 }
%"struct.dtTileCache::ObstacleRequest" = type { i32, i32 }
%struct.dtCompressedTile = type { i32, ptr, ptr, i32, ptr, i32, i32, ptr }

; Function Attrs: mustprogress nounwind uwtable
define void @_ZN11dtTileCacheD2Ev(ptr noundef nonnull align 8 dereferenceable(912) %0) unnamed_addr #2 align 2 personality ptr @__gxx_personality_v0 {
  %2 = alloca ptr, align 8
  %3 = alloca i32, align 4
  store ptr %0, ptr %2, align 8
  %4 = load ptr, ptr %2, align 8
  store i32 0, ptr %3, align 4
  br label %5

5:                                                ; preds = %37, %1
  %6 = load i32, ptr %3, align 4
  %7 = getelementptr inbounds %class.dtTileCache, ptr %4, i32 0, i32 7
  %8 = getelementptr inbounds %struct.dtTileCacheParams, ptr %7, i32 0, i32 9
  %9 = load i32, ptr %8, align 4
  %10 = icmp slt i32 %6, %9
  br i1 %10, label %11, label %40

11:                                               ; preds = %5
  %12 = getelementptr inbounds %class.dtTileCache, ptr %4, i32 0, i32 4
  %13 = load ptr, ptr %12, align 8
  %14 = load i32, ptr %3, align 4
  %15 = sext i32 %14 to i64
  %16 = getelementptr inbounds %struct.dtCompressedTile, ptr %13, i64 %15
  %17 = getelementptr inbounds %struct.dtCompressedTile, ptr %16, i32 0, i32 6
  %18 = load i32, ptr %17, align 4
  %19 = and i32 %18, 1
  %20 = icmp ne i32 %19, 0
  br i1 %20, label %21, label %36

21:                                               ; preds = %11
  %22 = getelementptr inbounds %class.dtTileCache, ptr %4, i32 0, i32 4
  %23 = load ptr, ptr %22, align 8
  %24 = load i32, ptr %3, align 4
  %25 = sext i32 %24 to i64
  %26 = getelementptr inbounds %struct.dtCompressedTile, ptr %23, i64 %25
  %27 = getelementptr inbounds %struct.dtCompressedTile, ptr %26, i32 0, i32 4
  %28 = load ptr, ptr %27, align 8
  invoke void @_Z6dtFreePv(ptr noundef %28)
          to label %29 unwind label %55

29:                                               ; preds = %21
  %30 = getelementptr inbounds %class.dtTileCache, ptr %4, i32 0, i32 4
  %31 = load ptr, ptr %30, align 8
  %32 = load i32, ptr %3, align 4
  %33 = sext i32 %32 to i64
  %34 = getelementptr inbounds %struct.dtCompressedTile, ptr %31, i64 %33
  %35 = getelementptr inbounds %struct.dtCompressedTile, ptr %34, i32 0, i32 4
  store ptr null, ptr %35, align 8
  br label %36

36:                                               ; preds = %29, %11
  br label %37

37:                                               ; preds = %36
  %38 = load i32, ptr %3, align 4
  %39 = add nsw i32 %38, 1
  store i32 %39, ptr %3, align 4
  br label %5, !llvm.loop !4

40:                                               ; preds = %5
  %41 = getelementptr inbounds %class.dtTileCache, ptr %4, i32 0, i32 11
  %42 = load ptr, ptr %41, align 8
  invoke void @_Z6dtFreePv(ptr noundef %42)
          to label %43 unwind label %55

43:                                               ; preds = %40
  %44 = getelementptr inbounds %class.dtTileCache, ptr %4, i32 0, i32 11
  store ptr null, ptr %44, align 8
  %45 = getelementptr inbounds %class.dtTileCache, ptr %4, i32 0, i32 2
  %46 = load ptr, ptr %45, align 8
  invoke void @_Z6dtFreePv(ptr noundef %46)
          to label %47 unwind label %55

47:                                               ; preds = %43
  %48 = getelementptr inbounds %class.dtTileCache, ptr %4, i32 0, i32 2
  store ptr null, ptr %48, align 8
  %49 = getelementptr inbounds %class.dtTileCache, ptr %4, i32 0, i32 4
  %50 = load ptr, ptr %49, align 8
  invoke void @_Z6dtFreePv(ptr noundef %50)
          to label %51 unwind label %55

51:                                               ; preds = %47
  %52 = getelementptr inbounds %class.dtTileCache, ptr %4, i32 0, i32 4
  store ptr null, ptr %52, align 8
  %53 = getelementptr inbounds %class.dtTileCache, ptr %4, i32 0, i32 14
  store i32 0, ptr %53, align 8
  %54 = getelementptr inbounds %class.dtTileCache, ptr %4, i32 0, i32 16
  store i32 0, ptr %54, align 4
  ret void

55:                                               ; preds = %47, %43, %40, %21
  %56 = landingpad { ptr, i32 }
          catch ptr null
  %57 = extractvalue { ptr, i32 } %56, 0
  call void @__clang_call_terminate(ptr %57) #10
  unreachable
}