; Function Attrs: mustprogress nounwind uwtable
define void @_ZN11dtTileCacheD2Ev(ptr noundef nonnull align 8 captures(none) dereferenceable(912) %0) unnamed_addr #4 align 2 personality ptr @__gxx_personality_v0 {
  %2 = getelementptr inbounds nuw i8, ptr %0, i64 84
  %3 = load i32, ptr %2, align 4
  %4 = icmp sgt i32 %3, 0
  br i1 %4, label %.lr.ph, label %._crit_edge

.lr.ph:                                           ; preds = %1
  %5 = getelementptr inbounds nuw i8, ptr %0, i64 24
  br label %6

6:                                                ; preds = %.lr.ph, %19
  %7 = phi i32 [ %3, %.lr.ph ], [ %20, %19 ]
  %indvars.iv = phi i64 [ 0, %.lr.ph ], [ %indvars.iv.next, %19 ]
  %8 = load ptr, ptr %5, align 8
  %9 = getelementptr inbounds nuw %struct.dtCompressedTile, ptr %8, i64 %indvars.iv
  %10 = getelementptr inbounds nuw i8, ptr %9, i64 44
  %11 = load i32, ptr %10, align 4
  %12 = and i32 %11, 1
  %.not = icmp eq i32 %12, 0
  br i1 %.not, label %19, label %13

13:                                               ; preds = %6
  %14 = getelementptr inbounds nuw i8, ptr %9, i64 32
  %15 = load ptr, ptr %14, align 8
  invoke void @_Z6dtFreePv(ptr noundef %15)
          to label %16 unwind label %.loopexit

16:                                               ; preds = %13
  %17 = load ptr, ptr %5, align 8
  %18 = getelementptr inbounds nuw %struct.dtCompressedTile, ptr %17, i64 %indvars.iv, i32 4
  store ptr null, ptr %18, align 8
  %.pre = load i32, ptr %2, align 4
  br label %19

19:                                               ; preds = %6, %16
  %20 = phi i32 [ %7, %6 ], [ %.pre, %16 ]
  %indvars.iv.next = add nuw nsw i64 %indvars.iv, 1
  %21 = sext i32 %20 to i64
  %22 = icmp slt i64 %indvars.iv.next, %21
  br i1 %22, label %6, label %._crit_edge, !llvm.loop !4

._crit_edge:                                      ; preds = %19, %1
  %23 = getelementptr inbounds nuw i8, ptr %0, i64 120
  %24 = load ptr, ptr %23, align 8
  invoke void @_Z6dtFreePv(ptr noundef %24)
          to label %25 unwind label %.loopexit.split-lp

25:                                               ; preds = %._crit_edge
  store ptr null, ptr %23, align 8
  %26 = getelementptr inbounds nuw i8, ptr %0, i64 8
  %27 = load ptr, ptr %26, align 8
  invoke void @_Z6dtFreePv(ptr noundef %27)
          to label %28 unwind label %.loopexit.split-lp

28:                                               ; preds = %25
  store ptr null, ptr %26, align 8
  %29 = getelementptr inbounds nuw i8, ptr %0, i64 24
  %30 = load ptr, ptr %29, align 8
  invoke void @_Z6dtFreePv(ptr noundef %30)
          to label %31 unwind label %.loopexit.split-lp

31:                                               ; preds = %28
  store ptr null, ptr %29, align 8
  %32 = getelementptr inbounds nuw i8, ptr %0, i64 648
  store i32 0, ptr %32, align 8
  %33 = getelementptr inbounds nuw i8, ptr %0, i64 908
  store i32 0, ptr %33, align 4
  ret void

.loopexit:                                        ; preds = %13
  %lpad.loopexit = landingpad { ptr, i32 }
          catch ptr null
  br label %34

.loopexit.split-lp:                               ; preds = %._crit_edge, %25, %28
  %lpad.loopexit.split-lp = landingpad { ptr, i32 }
          catch ptr null
  br label %34

34:                                               ; preds = %.loopexit.split-lp, %.loopexit
  %lpad.phi = phi { ptr, i32 } [ %lpad.loopexit, %.loopexit ], [ %lpad.loopexit.split-lp, %.loopexit.split-lp ]
  %35 = extractvalue { ptr, i32 } %lpad.phi, 0
  tail call void @__clang_call_terminate(ptr %35) #22
  unreachable
}